; ModuleID = 'source-C-CXX/42/1468.cpp'
source_filename = "source-C-CXX/42/1468.cpp"
target datalayout = "e-m:e-p270:32:32-p271:32:32-p272:64:64-i64:64-f80:128-n8:16:32:64-S128"
target triple = "x86_64-pc-linux-gnu"

%"class.std::ios_base::Init" = type { i8 }
%"class.std::basic_istream" = type { i32 (...)**, i64, %"class.std::basic_ios" }
%"class.std::basic_ios" = type { %"class.std::ios_base", %"class.std::basic_ostream"*, i8, i8, %"class.std::basic_streambuf"*, %"class.std::ctype"*, %"class.std::num_put"*, %"class.std::num_get"* }
%"class.std::ios_base" = type { i32 (...)**, i64, i64, i32, i32, i32, %"struct.std::ios_base::_Callback_list"*, %"struct.std::ios_base::_Words", [8 x %"struct.std::ios_base::_Words"], i32, %"struct.std::ios_base::_Words"*, %"class.std::locale" }
%"struct.std::ios_base::_Callback_list" = type { %"struct.std::ios_base::_Callback_list"*, void (i32, %"class.std::ios_base"*, i32)*, i32, i32 }
%"struct.std::ios_base::_Words" = type { i8*, i64 }
%"class.std::locale" = type { %"class.std::locale::_Impl"* }
%"class.std::locale::_Impl" = type { i32, %"class.std::locale::facet"**, i64, %"class.std::locale::facet"**, i8** }
%"class.std::locale::facet" = type <{ i32 (...)**, i32, [4 x i8] }>
%"class.std::basic_ostream" = type { i32 (...)**, %"class.std::basic_ios" }
%"class.std::basic_streambuf" = type { i32 (...)**, i8*, i8*, i8*, i8*, i8*, i8*, %"class.std::locale" }
%"class.std::ctype" = type <{ %"class.std::locale::facet.base", [4 x i8], %struct.__locale_struct*, i8, [7 x i8], i32*, i32*, i16*, i8, [256 x i8], [256 x i8], i8, [6 x i8] }>
%"class.std::locale::facet.base" = type <{ i32 (...)**, i32 }>
%struct.__locale_struct = type { [13 x %struct.__locale_data*], i16*, i32*, i32*, [13 x i8*] }
%struct.__locale_data = type opaque
%"class.std::num_put" = type { %"class.std::locale::facet.base", [4 x i8] }
%"class.std::num_get" = type { %"class.std::locale::facet.base", [4 x i8] }

@_ZStL8__ioinit = internal global %"class.std::ios_base::Init" zeroinitializer, align 1
@__dso_handle = external hidden global i8
@_ZSt3cin = external global %"class.std::basic_istream", align 8
@_ZSt4cout = external global %"class.std::basic_ostream", align 8
@llvm.global_ctors = appending global [1 x { i32, void ()*, i8* }] [{ i32, void ()*, i8* } { i32 65535, void ()* @_GLOBAL__sub_I_1468.cpp, i8* null }]

declare void @_ZNSt8ios_base4InitC1Ev(%"class.std::ios_base::Init"* nonnull align 1 dereferenceable(1)) unnamed_addr #0

; Function Attrs: nounwind
declare void @_ZNSt8ios_base4InitD1Ev(%"class.std::ios_base::Init"* nonnull align 1 dereferenceable(1)) unnamed_addr #1

; Function Attrs: nofree nounwind
declare i32 @__cxa_atexit(void (i8*)*, i8*, i8*) local_unnamed_addr #2

; Function Attrs: mustprogress norecurse sspstrong uwtable
define dso_local i32 @main() local_unnamed_addr #3 {
  %1 = alloca i8, align 1
  %2 = alloca [10001 x i32], align 16
  %3 = alloca i32, align 4
  %4 = bitcast [10001 x i32]* %2 to i8*
  call void @llvm.lifetime.start.p0i8(i64 40004, i8* nonnull %4) #9
  call void @llvm.memset.p0i8.i64(i8* noundef nonnull align 16 dereferenceable(40004) %4, i8 0, i64 40004, i1 false)
  %5 = bitcast i32* %3 to i8*
  call void @llvm.lifetime.start.p0i8(i64 4, i8* nonnull %5) #9
  %6 = call nonnull align 8 dereferenceable(16) %"class.std::basic_istream"* @_ZNSirsERi(%"class.std::basic_istream"* nonnull align 8 dereferenceable(16) @_ZSt3cin, i32* nonnull align 4 dereferenceable(4) %3)
  %7 = load i32, i32* %3, align 4, !tbaa !5
  %8 = sitofp i32 %7 to double
  %9 = call double @sqrt(double %8) #9
  %10 = fptosi double %9 to i32
  %11 = load i32, i32* %3, align 4
  %12 = icmp slt i32 %10, 2
  br i1 %12, label %16, label %13

13:                                               ; preds = %0
  %14 = add nuw i32 %10, 1
  %15 = zext i32 %14 to i64
  br label %18

16:                                               ; preds = %38, %0
  %17 = icmp slt i32 %11, 6
  br i1 %17, label %96, label %41

18:                                               ; preds = %13, %38
  %19 = phi i64 [ 2, %13 ], [ %39, %38 ]
  %20 = getelementptr inbounds [10001 x i32], [10001 x i32]* %2, i64 0, i64 %19
  %21 = load i32, i32* %20, align 4, !tbaa !5
  %22 = icmp eq i32 %21, 0
  %23 = trunc i64 %19 to i32
  %24 = shl i32 %23, 1
  %25 = icmp slt i32 %24, %11
  %26 = select i1 %22, i1 %25, i1 false
  br i1 %26, label %27, label %38

27:                                               ; preds = %18
  %28 = trunc i64 %19 to i32
  br label %29

29:                                               ; preds = %27, %29
  %30 = phi i64 [ 2, %27 ], [ %34, %29 ]
  %31 = phi i32 [ %24, %27 ], [ %36, %29 ]
  %32 = zext i32 %31 to i64
  %33 = getelementptr inbounds [10001 x i32], [10001 x i32]* %2, i64 0, i64 %32
  store i32 1, i32* %33, align 4, !tbaa !5
  %34 = add nuw nsw i64 %30, 1
  %35 = trunc i64 %34 to i32
  %36 = mul nsw i32 %35, %28
  %37 = icmp slt i32 %36, %11
  br i1 %37, label %29, label %38, !llvm.loop !9

38:                                               ; preds = %29, %18
  %39 = add nuw nsw i64 %19, 1
  %40 = icmp eq i64 %39, %15
  br i1 %40, label %16, label %18, !llvm.loop !11

41:                                               ; preds = %16, %90
  %42 = phi i32 [ %91, %90 ], [ %11, %16 ]
  %43 = phi i64 [ %92, %90 ], [ 3, %16 ]
  %44 = getelementptr inbounds [10001 x i32], [10001 x i32]* %2, i64 0, i64 %43
  %45 = load i32, i32* %44, align 4, !tbaa !5
  %46 = icmp eq i32 %45, 0
  br i1 %46, label %47, label %90

47:                                               ; preds = %41
  %48 = trunc i64 %43 to i32
  %49 = sub nsw i32 %42, %48
  %50 = sext i32 %49 to i64
  %51 = getelementptr inbounds [10001 x i32], [10001 x i32]* %2, i64 0, i64 %50
  %52 = load i32, i32* %51, align 4, !tbaa !5
  %53 = icmp eq i32 %52, 0
  br i1 %53, label %54, label %90

54:                                               ; preds = %47
  %55 = call nonnull align 8 dereferenceable(8) %"class.std::basic_ostream"* @_ZNSolsEi(%"class.std::basic_ostream"* nonnull align 8 dereferenceable(8) @_ZSt4cout, i32 %48)
  call void @llvm.lifetime.start.p0i8(i64 1, i8* nonnull %1)
  store i8 32, i8* %1, align 1, !tbaa !12
  %56 = call nonnull align 8 dereferenceable(8) %"class.std::basic_ostream"* @_ZSt16__ostream_insertIcSt11char_traitsIcEERSt13basic_ostreamIT_T0_ES6_PKS3_l(%"class.std::basic_ostream"* nonnull align 8 dereferenceable(8) %55, i8* nonnull %1, i64 1)
  call void @llvm.lifetime.end.p0i8(i64 1, i8* nonnull %1)
  %57 = load i32, i32* %3, align 4, !tbaa !5
  %58 = sub nsw i32 %57, %48
  %59 = call nonnull align 8 dereferenceable(8) %"class.std::basic_ostream"* @_ZNSolsEi(%"class.std::basic_ostream"* nonnull align 8 dereferenceable(8) %56, i32 %58)
  %60 = bitcast %"class.std::basic_ostream"* %59 to i8**
  %61 = load i8*, i8** %60, align 8, !tbaa !13
  %62 = getelementptr i8, i8* %61, i64 -24
  %63 = bitcast i8* %62 to i64*
  %64 = load i64, i64* %63, align 8
  %65 = bitcast %"class.std::basic_ostream"* %59 to i8*
  %66 = add nsw i64 %64, 240
  %67 = getelementptr inbounds i8, i8* %65, i64 %66
  %68 = bitcast i8* %67 to %"class.std::ctype"**
  %69 = load %"class.std::ctype"*, %"class.std::ctype"** %68, align 8, !tbaa !15
  %70 = icmp eq %"class.std::ctype"* %69, null
  br i1 %70, label %71, label %72

71:                                               ; preds = %54
  call void @_ZSt16__throw_bad_castv() #10
  unreachable

72:                                               ; preds = %54
  %73 = getelementptr inbounds %"class.std::ctype", %"class.std::ctype"* %69, i64 0, i32 8
  %74 = load i8, i8* %73, align 8, !tbaa !19
  %75 = icmp eq i8 %74, 0
  br i1 %75, label %79, label %76

76:                                               ; preds = %72
  %77 = getelementptr inbounds %"class.std::ctype", %"class.std::ctype"* %69, i64 0, i32 9, i64 10
  %78 = load i8, i8* %77, align 1, !tbaa !12
  br label %85

79:                                               ; preds = %72
  call void @_ZNKSt5ctypeIcE13_M_widen_initEv(%"class.std::ctype"* nonnull align 8 dereferenceable(570) %69)
  %80 = bitcast %"class.std::ctype"* %69 to i8 (%"class.std::ctype"*, i8)***
  %81 = load i8 (%"class.std::ctype"*, i8)**, i8 (%"class.std::ctype"*, i8)*** %80, align 8, !tbaa !13
  %82 = getelementptr inbounds i8 (%"class.std::ctype"*, i8)*, i8 (%"class.std::ctype"*, i8)** %81, i64 6
  %83 = load i8 (%"class.std::ctype"*, i8)*, i8 (%"class.std::ctype"*, i8)** %82, align 8
  %84 = call signext i8 %83(%"class.std::ctype"* nonnull align 8 dereferenceable(570) %69, i8 signext 10)
  br label %85

85:                                               ; preds = %76, %79
  %86 = phi i8 [ %78, %76 ], [ %84, %79 ]
  %87 = call nonnull align 8 dereferenceable(8) %"class.std::basic_ostream"* @_ZNSo3putEc(%"class.std::basic_ostream"* nonnull align 8 dereferenceable(8) %59, i8 signext %86)
  %88 = call nonnull align 8 dereferenceable(8) %"class.std::basic_ostream"* @_ZNSo5flushEv(%"class.std::basic_ostream"* nonnull align 8 dereferenceable(8) %87)
  %89 = load i32, i32* %3, align 4, !tbaa !5
  br label %90

90:                                               ; preds = %41, %47, %85
  %91 = phi i32 [ %42, %41 ], [ %42, %47 ], [ %89, %85 ]
  %92 = add nuw nsw i64 %43, 1
  %93 = sdiv i32 %91, 2
  %94 = sext i32 %93 to i64
  %95 = icmp slt i64 %43, %94
  br i1 %95, label %41, label %96, !llvm.loop !21

96:                                               ; preds = %90, %16
  call void @llvm.lifetime.end.p0i8(i64 4, i8* nonnull %5) #9
  call void @llvm.lifetime.end.p0i8(i64 40004, i8* nonnull %4) #9
  ret i32 0
}

; Function Attrs: argmemonly mustprogress nofree nosync nounwind willreturn
declare void @llvm.lifetime.start.p0i8(i64 immarg, i8* nocapture) #4

; Function Attrs: argmemonly mustprogress nofree nounwind willreturn writeonly
declare void @llvm.memset.p0i8.i64(i8* nocapture writeonly, i8, i64, i1 immarg) #5

declare nonnull align 8 dereferenceable(16) %"class.std::basic_istream"* @_ZNSirsERi(%"class.std::basic_istream"* nonnull align 8 dereferenceable(16), i32* nonnull align 4 dereferenceable(4)) local_unnamed_addr #0

declare nonnull align 8 dereferenceable(8) %"class.std::basic_ostream"* @_ZNSolsEi(%"class.std::basic_ostream"* nonnull align 8 dereferenceable(8), i32) local_unnamed_addr #0

; Function Attrs: argmemonly mustprogress nofree nosync nounwind willreturn
declare void @llvm.lifetime.end.p0i8(i64 immarg, i8* nocapture) #4

; Function Attrs: mustprogress nofree nounwind willreturn
declare double @sqrt(double) local_unnamed_addr #6

declare nonnull align 8 dereferenceable(8) %"class.std::basic_ostream"* @_ZSt16__ostream_insertIcSt11char_traitsIcEERSt13basic_ostreamIT_T0_ES6_PKS3_l(%"class.std::basic_ostream"* nonnull align 8 dereferenceable(8), i8*, i64) local_unnamed_addr #0

declare nonnull align 8 dereferenceable(8) %"class.std::basic_ostream"* @_ZNSo3putEc(%"class.std::basic_ostream"* nonnull align 8 dereferenceable(8), i8 signext) local_unnamed_addr #0

declare nonnull align 8 dereferenceable(8) %"class.std::basic_ostream"* @_ZNSo5flushEv(%"class.std::basic_ostream"* nonnull align 8 dereferenceable(8)) local_unnamed_addr #0

; Function Attrs: noreturn
declare void @_ZSt16__throw_bad_castv() local_unnamed_addr #7

declare void @_ZNKSt5ctypeIcE13_M_widen_initEv(%"class.std::ctype"* nonnull align 8 dereferenceable(570)) local_unnamed_addr #0

; Function Attrs: sspstrong uwtable
define internal void @_GLOBAL__sub_I_1468.cpp() #8 section ".text.startup" {
  tail call void @_ZNSt8ios_base4InitC1Ev(%"class.std::ios_base::Init"* nonnull align 1 dereferenceable(1) @_ZStL8__ioinit)
  %1 = tail call i32 @__cxa_atexit(void (i8*)* bitcast (void (%"class.std::ios_base::Init"*)* @_ZNSt8ios_base4InitD1Ev to void (i8*)*), i8* getelementptr inbounds (%"class.std::ios_base::Init", %"class.std::ios_base::Init"* @_ZStL8__ioinit, i64 0, i32 0), i8* nonnull @__dso_handle) #9
  ret void
}


!llvm.module.flags = !{!0, !1, !2, !3}
!llvm.ident = !{!4}

!0 = !{i32 1, !"wchar_size", i32 4}
!1 = !{i32 7, !"PIC Level", i32 2}
!2 = !{i32 7, !"PIE Level", i32 2}
!3 = !{i32 7, !"uwtable", i32 1}
!4 = !{!"clang version 13.0.0"}
!5 = !{!6, !6, i64 0}
!6 = !{!"int", !7, i64 0}
!7 = !{!"omnipotent char", !8, i64 0}
!8 = !{!"Simple C++ TBAA"}
!9 = distinct !{!9, !10}
!10 = !{!"llvm.loop.mustprogress"}
!11 = distinct !{!11, !10}
!12 = !{!7, !7, i64 0}
!13 = !{!14, !14, i64 0}
!14 = !{!"vtable pointer", !8, i64 0}
!15 = !{!16, !17, i64 240}
!16 = !{!"_ZTSSt9basic_iosIcSt11char_traitsIcEE", !17, i64 216, !7, i64 224, !18, i64 225, !17, i64 232, !17, i64 240, !17, i64 248, !17, i64 256}
!17 = !{!"any pointer", !7, i64 0}
!18 = !{!"bool", !7, i64 0}
!19 = !{!20, !7, i64 56}
!20 = !{!"_ZTSSt5ctypeIcE", !17, i64 16, !18, i64 24, !17, i64 32, !17, i64 40, !17, i64 48, !7, i64 56, !7, i64 57, !7, i64 313, !7, i64 569}
!21 = distinct !{!21, !10}
